target datalayout = "e-m:e-p270:32:32-p271:32:32-p272:64:64-i64:64-i128:128-f80:128-n8:16:32:64-S128"
target triple = "x86_64-pc-linux-gnu"

%struct.AVCIExy = type { %struct.AVRational, %struct.AVRational }
%struct.AVRational = type { i32, i32 }
%struct.AVPrimaryCoefficients = type { %struct.AVCIExy, %struct.AVCIExy, %struct.AVCIExy }

; Function Attrs: nounwind uwtable
define internal float @test_point_gamut(i64 %0, i64 %1, ptr noundef %2) #0 {
  %4 = alloca %struct.AVCIExy, align 4
  %5 = alloca ptr, align 8
  %6 = alloca i32, align 4
  %7 = alloca i32, align 4
  %8 = alloca i32, align 4
  %9 = alloca i8, align 1
  %10 = alloca i8, align 1
  %11 = getelementptr inbounds nuw { i64, i64 }, ptr %4, i32 0, i32 0
  store i64 %0, ptr %11, align 4
  %12 = getelementptr inbounds nuw { i64, i64 }, ptr %4, i32 0, i32 1
  store i64 %1, ptr %12, align 4
  store ptr %2, ptr %5, align 8, !tbaa !28
  call void @llvm.lifetime.start.p0(i64 4, ptr %6) #7
  %13 = load ptr, ptr %5, align 8, !tbaa !28
  %14 = getelementptr inbounds nuw %struct.AVPrimaryCoefficients, ptr %13, i32 0, i32 0
  %15 = load ptr, ptr %5, align 8, !tbaa !28
  %16 = getelementptr inbounds nuw %struct.AVPrimaryCoefficients, ptr %15, i32 0, i32 1
  %17 = getelementptr inbounds nuw { i64, i64 }, ptr %4, i32 0, i32 0
  %18 = load i64, ptr %17, align 4
  %19 = getelementptr inbounds nuw { i64, i64 }, ptr %4, i32 0, i32 1
  %20 = load i64, ptr %19, align 4
  %21 = getelementptr inbounds nuw { i64, i64 }, ptr %14, i32 0, i32 0
  %22 = load i64, ptr %21, align 4
  %23 = getelementptr inbounds nuw { i64, i64 }, ptr %14, i32 0, i32 1
  %24 = load i64, ptr %23, align 4
  %25 = getelementptr inbounds nuw { i64, i64 }, ptr %16, i32 0, i32 0
  %26 = load i64, ptr %25, align 4
  %27 = getelementptr inbounds nuw { i64, i64 }, ptr %16, i32 0, i32 1
  %28 = load i64, ptr %27, align 4
  %29 = call i32 @test_point_line(i64 %18, i64 %20, i64 %22, i64 %24, i64 %26, i64 %28)
  store i32 %29, ptr %6, align 4, !tbaa !11
  call void @llvm.lifetime.start.p0(i64 4, ptr %7) #7
  %30 = load ptr, ptr %5, align 8, !tbaa !28
  %31 = getelementptr inbounds nuw %struct.AVPrimaryCoefficients, ptr %30, i32 0, i32 1
  %32 = load ptr, ptr %5, align 8, !tbaa !28
  %33 = getelementptr inbounds nuw %struct.AVPrimaryCoefficients, ptr %32, i32 0, i32 2
  %34 = getelementptr inbounds nuw { i64, i64 }, ptr %4, i32 0, i32 0
  %35 = load i64, ptr %34, align 4
  %36 = getelementptr inbounds nuw { i64, i64 }, ptr %4, i32 0, i32 1
  %37 = load i64, ptr %36, align 4
  %38 = getelementptr inbounds nuw { i64, i64 }, ptr %31, i32 0, i32 0
  %39 = load i64, ptr %38, align 4
  %40 = getelementptr inbounds nuw { i64, i64 }, ptr %31, i32 0, i32 1
  %41 = load i64, ptr %40, align 4
  %42 = getelementptr inbounds nuw { i64, i64 }, ptr %33, i32 0, i32 0
  %43 = load i64, ptr %42, align 4
  %44 = getelementptr inbounds nuw { i64, i64 }, ptr %33, i32 0, i32 1
  %45 = load i64, ptr %44, align 4
  %46 = call i32 @test_point_line(i64 %35, i64 %37, i64 %39, i64 %41, i64 %43, i64 %45)
  store i32 %46, ptr %7, align 4, !tbaa !11
  call void @llvm.lifetime.start.p0(i64 4, ptr %8) #7
  %47 = load ptr, ptr %5, align 8, !tbaa !28
  %48 = getelementptr inbounds nuw %struct.AVPrimaryCoefficients, ptr %47, i32 0, i32 2
  %49 = load ptr, ptr %5, align 8, !tbaa !28
  %50 = getelementptr inbounds nuw %struct.AVPrimaryCoefficients, ptr %49, i32 0, i32 0
  %51 = getelementptr inbounds nuw { i64, i64 }, ptr %4, i32 0, i32 0
  %52 = load i64, ptr %51, align 4
  %53 = getelementptr inbounds nuw { i64, i64 }, ptr %4, i32 0, i32 1
  %54 = load i64, ptr %53, align 4
  %55 = getelementptr inbounds nuw { i64, i64 }, ptr %48, i32 0, i32 0
  %56 = load i64, ptr %55, align 4
  %57 = getelementptr inbounds nuw { i64, i64 }, ptr %48, i32 0, i32 1
  %58 = load i64, ptr %57, align 4
  %59 = getelementptr inbounds nuw { i64, i64 }, ptr %50, i32 0, i32 0
  %60 = load i64, ptr %59, align 4
  %61 = getelementptr inbounds nuw { i64, i64 }, ptr %50, i32 0, i32 1
  %62 = load i64, ptr %61, align 4
  %63 = call i32 @test_point_line(i64 %52, i64 %54, i64 %56, i64 %58, i64 %60, i64 %62)
  store i32 %63, ptr %8, align 4, !tbaa !11
  call void @llvm.lifetime.start.p0(i64 1, ptr %9) #7
  %64 = load i32, ptr %6, align 4, !tbaa !11
  %65 = icmp slt i32 %64, 0
  br i1 %65, label %72, label %66

66:                                               ; preds = %3
  %67 = load i32, ptr %7, align 4, !tbaa !11
  %68 = icmp slt i32 %67, 0
  br i1 %68, label %72, label %69

69:                                               ; preds = %66
  %70 = load i32, ptr %8, align 4, !tbaa !11
  %71 = icmp slt i32 %70, 0
  br label %72

72:                                               ; preds = %69, %66, %3
  %73 = phi i1 [ true, %66 ], [ true, %3 ], [ %71, %69 ]
  %74 = zext i1 %73 to i8
  store i8 %74, ptr %9, align 1, !tbaa !36
  call void @llvm.lifetime.start.p0(i64 1, ptr %10) #7
  %75 = load i32, ptr %6, align 4, !tbaa !11
  %76 = icmp sgt i32 %75, 0
  br i1 %76, label %83, label %77

77:                                               ; preds = %72
  %78 = load i32, ptr %7, align 4, !tbaa !11
  %79 = icmp sgt i32 %78, 0
  br i1 %79, label %83, label %80

80:                                               ; preds = %77
  %81 = load i32, ptr %8, align 4, !tbaa !11
  %82 = icmp sgt i32 %81, 0
  br label %83

83:                                               ; preds = %80, %77, %72
  %84 = phi i1 [ true, %77 ], [ true, %72 ], [ %82, %80 ]
  %85 = zext i1 %84 to i8
  store i8 %85, ptr %10, align 1, !tbaa !36
  %86 = load i8, ptr %9, align 1, !tbaa !36, !range !38, !noundef !39
  %87 = trunc i8 %86 to i1
  br i1 %87, label %88, label %91

88:                                               ; preds = %83
  %89 = load i8, ptr %10, align 1, !tbaa !36, !range !38, !noundef !39
  %90 = trunc i8 %89 to i1
  br label %91

91:                                               ; preds = %88, %83
  %92 = phi i1 [ false, %83 ], [ %90, %88 ]
  %93 = xor i1 %92, true
  %94 = zext i1 %93 to i32
  %95 = sitofp i32 %94 to float
  call void @llvm.lifetime.end.p0(i64 1, ptr %10) #7
  call void @llvm.lifetime.end.p0(i64 1, ptr %9) #7
  call void @llvm.lifetime.end.p0(i64 4, ptr %8) #7
  call void @llvm.lifetime.end.p0(i64 4, ptr %7) #7
  call void @llvm.lifetime.end.p0(i64 4, ptr %6) #7
  ret float %95
}

; Function Attrs: nounwind uwtable
define zeroext i1 @ff_prim_superset(ptr noundef %0, ptr noundef %1) #0 {
  %3 = alloca ptr, align 8
  %4 = alloca ptr, align 8
  store ptr %0, ptr %3, align 8, !tbaa !28
  store ptr %1, ptr %4, align 8, !tbaa !28
  %5 = load ptr, ptr %4, align 8, !tbaa !28
  %6 = getelementptr inbounds nuw %struct.AVPrimaryCoefficients, ptr %5, i32 0, i32 0
  %7 = load ptr, ptr %3, align 8, !tbaa !28
  %8 = getelementptr inbounds nuw { i64, i64 }, ptr %6, i32 0, i32 0
  %9 = load i64, ptr %8, align 4
  %10 = getelementptr inbounds nuw { i64, i64 }, ptr %6, i32 0, i32 1
  %11 = load i64, ptr %10, align 4
  %12 = call nsz float @test_point_gamut(i64 %9, i64 %11, ptr noundef %7)
  %13 = fcmp nsz une float %12, 0.000000e+00
  br i1 %13, label %14, label %34

14:                                               ; preds = %2
  %15 = load ptr, ptr %4, align 8, !tbaa !28
  %16 = getelementptr inbounds nuw %struct.AVPrimaryCoefficients, ptr %15, i32 0, i32 1
  %17 = load ptr, ptr %3, align 8, !tbaa !28
  %18 = getelementptr inbounds nuw { i64, i64 }, ptr %16, i32 0, i32 0
  %19 = load i64, ptr %18, align 4
  %20 = getelementptr inbounds nuw { i64, i64 }, ptr %16, i32 0, i32 1
  %21 = load i64, ptr %20, align 4
  %22 = call nsz float @test_point_gamut(i64 %19, i64 %21, ptr noundef %17)
  %23 = fcmp nsz une float %22, 0.000000e+00
  br i1 %23, label %24, label %34

24:                                               ; preds = %14
  %25 = load ptr, ptr %4, align 8, !tbaa !28
  %26 = getelementptr inbounds nuw %struct.AVPrimaryCoefficients, ptr %25, i32 0, i32 2
  %27 = load ptr, ptr %3, align 8, !tbaa !28
  %28 = getelementptr inbounds nuw { i64, i64 }, ptr %26, i32 0, i32 0
  %29 = load i64, ptr %28, align 4
  %30 = getelementptr inbounds nuw { i64, i64 }, ptr %26, i32 0, i32 1
  %31 = load i64, ptr %30, align 4
  %32 = call nsz float @test_point_gamut(i64 %29, i64 %31, ptr noundef %27)
  %33 = fcmp nsz une float %32, 0.000000e+00
  br label %34

34:                                               ; preds = %24, %14, %2
  %35 = phi i1 [ false, %14 ], [ false, %2 ], [ %33, %24 ]
  ret i1 %35
}