; Function Attrs: mustprogress nofree nosync nounwind willreturn memory(argmem: read) uwtable
define zeroext i1 @ff_prim_superset(ptr noundef readonly captures(none) %0, ptr noundef readonly captures(none) %1) local_unnamed_addr #7 {
  %3 = load i64, ptr %1, align 4
  %4 = getelementptr inbounds nuw i8, ptr %1, i64 8
  %5 = load i64, ptr %4, align 4
  %6 = getelementptr inbounds nuw i8, ptr %0, i64 16
  %7 = load i64, ptr %0, align 4
  %8 = getelementptr inbounds nuw i8, ptr %0, i64 8
  %9 = load i64, ptr %8, align 4
  %10 = load i64, ptr %6, align 4
  %11 = getelementptr inbounds nuw i8, ptr %0, i64 24
  %12 = load i64, ptr %11, align 4
  %13 = tail call fastcc i32 @test_point_line(i64 %3, i64 %5, i64 %7, i64 %9, i64 %10, i64 %12)
  %14 = getelementptr inbounds nuw i8, ptr %0, i64 32
  %15 = load i64, ptr %14, align 4
  %16 = getelementptr inbounds nuw i8, ptr %0, i64 40
  %17 = load i64, ptr %16, align 4
  %18 = tail call fastcc i32 @test_point_line(i64 %3, i64 %5, i64 %10, i64 %12, i64 %15, i64 %17)
  %19 = tail call fastcc i32 @test_point_line(i64 %3, i64 %5, i64 %15, i64 %17, i64 %7, i64 %9)
  %20 = icmp sgt i32 %13, -1
  %21 = icmp sgt i32 %18, -1
  %or.cond.not25.i = select i1 %20, i1 %21, i1 false
  %22 = icmp sgt i32 %19, -1
  %spec.select.not22.i = select i1 %or.cond.not25.i, i1 %22, i1 false
  %23 = icmp slt i32 %13, 1
  %24 = icmp slt i32 %18, 1
  %or.cond3.not30.i = select i1 %23, i1 %24, i1 false
  %25 = icmp slt i32 %19, 1
  %spec.select20.not27.i = select i1 %or.cond3.not30.i, i1 %25, i1 false
  %.not.i = select i1 %spec.select.not22.i, i1 true, i1 %spec.select20.not27.i
  br i1 %.not.i, label %26, label %54

26:                                               ; preds = %2
  %27 = getelementptr inbounds nuw i8, ptr %1, i64 16
  %28 = load i64, ptr %27, align 4
  %29 = getelementptr inbounds nuw i8, ptr %1, i64 24
  %30 = load i64, ptr %29, align 4
  %31 = tail call fastcc i32 @test_point_line(i64 %28, i64 %30, i64 %7, i64 %9, i64 %10, i64 %12)
  %32 = tail call fastcc i32 @test_point_line(i64 %28, i64 %30, i64 %10, i64 %12, i64 %15, i64 %17)
  %33 = tail call fastcc i32 @test_point_line(i64 %28, i64 %30, i64 %15, i64 %17, i64 %7, i64 %9)
  %34 = icmp sgt i32 %31, -1
  %35 = icmp sgt i32 %32, -1
  %or.cond.not25.i6 = select i1 %34, i1 %35, i1 false
  %36 = icmp sgt i32 %33, -1
  %spec.select.not22.i7 = select i1 %or.cond.not25.i6, i1 %36, i1 false
  %37 = icmp slt i32 %31, 1
  %38 = icmp slt i32 %32, 1
  %or.cond3.not30.i8 = select i1 %37, i1 %38, i1 false
  %39 = icmp slt i32 %33, 1
  %spec.select20.not27.i9 = select i1 %or.cond3.not30.i8, i1 %39, i1 false
  %.not.i10 = select i1 %spec.select.not22.i7, i1 true, i1 %spec.select20.not27.i9
  br i1 %.not.i10, label %40, label %54

40:                                               ; preds = %26
  %41 = getelementptr inbounds nuw i8, ptr %1, i64 32
  %42 = load i64, ptr %41, align 4
  %43 = getelementptr inbounds nuw i8, ptr %1, i64 40
  %44 = load i64, ptr %43, align 4
  %45 = tail call fastcc i32 @test_point_line(i64 %42, i64 %44, i64 %7, i64 %9, i64 %10, i64 %12)
  %46 = tail call fastcc i32 @test_point_line(i64 %42, i64 %44, i64 %10, i64 %12, i64 %15, i64 %17)
  %47 = tail call fastcc i32 @test_point_line(i64 %42, i64 %44, i64 %15, i64 %17, i64 %7, i64 %9)
  %48 = icmp sgt i32 %45, -1
  %49 = icmp sgt i32 %46, -1
  %or.cond.not25.i11 = select i1 %48, i1 %49, i1 false
  %50 = icmp sgt i32 %47, -1
  %spec.select.not22.i12 = select i1 %or.cond.not25.i11, i1 %50, i1 false
  %51 = icmp slt i32 %45, 1
  %52 = icmp slt i32 %46, 1
  %or.cond3.not30.i13 = select i1 %51, i1 %52, i1 false
  %53 = icmp slt i32 %47, 1
  %spec.select20.not27.i14 = select i1 %or.cond3.not30.i13, i1 %53, i1 false
  %.not.i15 = select i1 %spec.select.not22.i12, i1 true, i1 %spec.select20.not27.i14
  br label %54

54:                                               ; preds = %40, %26, %2
  %55 = phi i1 [ false, %26 ], [ false, %2 ], [ %.not.i15, %40 ]
  ret i1 %55
}